; Function Attrs: mustprogress nounwind uwtable
define hidden noundef zeroext i1 @_ZNK13InstanceKlass21is_same_class_packageEPK5Klass(ptr noundef nonnull align 8 dereferenceable(464) %0, ptr noundef %1) local_unnamed_addr #0 align 2 {
  %3 = getelementptr inbounds i8, ptr %0, i64 152
  %4 = load ptr, ptr %3, align 8
  %5 = getelementptr inbounds i8, ptr %4, i64 8
  %6 = load ptr, ptr %5, align 8
  %7 = icmp eq ptr %6, null
  br i1 %7, label %_ZNK5Klass12class_loaderEv.exit, label %8

8:                                                ; preds = %2
  %9 = load ptr, ptr @_ZN14AccessInternal15RuntimeDispatchILm548932EP7oopDescLNS_11BarrierTypeE2EE10_load_funcE, align 8
  %10 = tail call noundef ptr %9(ptr noundef nonnull %6) #26
  br label %_ZNK5Klass12class_loaderEv.exit

_ZNK5Klass12class_loaderEv.exit:                  ; preds = %2, %8
  %11 = phi ptr [ %10, %8 ], [ null, %2 ]
  %12 = load ptr, ptr %0, align 8
  %13 = getelementptr inbounds i8, ptr %12, i64 144
  %14 = load ptr, ptr %13, align 8
  %15 = tail call noundef ptr %14(ptr noundef nonnull align 8 dereferenceable(464) %0) #26
  %16 = getelementptr inbounds i8, ptr %1, i64 12
  %17 = load i32, ptr %16, align 4
  %18 = icmp eq i32 %17, 6
  br i1 %18, label %19, label %22

19:                                               ; preds = %_ZNK5Klass12class_loaderEv.exit
  %20 = getelementptr inbounds i8, ptr %1, i64 224
  %21 = load ptr, ptr %20, align 8
  %.phi.trans.insert = getelementptr inbounds i8, ptr %21, i64 12
  %.pre = load i32, ptr %.phi.trans.insert, align 4
  br label %22

22:                                               ; preds = %19, %_ZNK5Klass12class_loaderEv.exit
  %23 = phi i32 [ %.pre, %19 ], [ %17, %_ZNK5Klass12class_loaderEv.exit ]
  %.013 = phi ptr [ %21, %19 ], [ %1, %_ZNK5Klass12class_loaderEv.exit ]
  %24 = icmp slt i32 %23, 5
  br i1 %24, label %25, label %39

25:                                               ; preds = %22
  %26 = getelementptr inbounds i8, ptr %.013, i64 152
  %27 = load ptr, ptr %26, align 8
  %28 = getelementptr inbounds i8, ptr %27, i64 8
  %29 = load ptr, ptr %28, align 8
  %30 = icmp eq ptr %29, null
  br i1 %30, label %_ZNK5Klass12class_loaderEv.exit14, label %31

31:                                               ; preds = %25
  %32 = load ptr, ptr @_ZN14AccessInternal15RuntimeDispatchILm548932EP7oopDescLNS_11BarrierTypeE2EE10_load_funcE, align 8
  %33 = tail call noundef ptr %32(ptr noundef nonnull %29) #26
  br label %_ZNK5Klass12class_loaderEv.exit14

_ZNK5Klass12class_loaderEv.exit14:                ; preds = %25, %31
  %34 = phi ptr [ %33, %31 ], [ null, %25 ]
  %35 = load ptr, ptr %.013, align 8
  %36 = getelementptr inbounds i8, ptr %35, i64 144
  %37 = load ptr, ptr %36, align 8
  %38 = tail call noundef ptr %37(ptr noundef nonnull align 8 dereferenceable(196) %.013) #26
  br label %39

39:                                               ; preds = %22, %_ZNK5Klass12class_loaderEv.exit14
  %.011 = phi ptr [ %34, %_ZNK5Klass12class_loaderEv.exit14 ], [ null, %22 ]
  %.0 = phi ptr [ %38, %_ZNK5Klass12class_loaderEv.exit14 ], [ null, %22 ]
  %40 = icmp eq ptr %11, %.011
  %41 = icmp eq ptr %15, %.0
  %or.cond = and i1 %40, %41
  ret i1 %or.cond
}